; Function Attrs: nounwind uwtable
define dso_local ptr @zzlLastInRange(ptr noundef %0, ptr noundef readonly captures(none) %1) local_unnamed_addr #0 {
  %3 = alloca [128 x i8], align 16
  %4 = alloca i32, align 4
  %5 = alloca i64, align 8
  %6 = tail call ptr @lpSeek(ptr noundef %0, i64 noundef -2) #18
  %7 = tail call i32 @zzlIsInRange(ptr noundef %0, ptr noundef %1)
  %.not = icmp eq i32 %7, 0
  %.not2336 = icmp eq ptr %6, null
  %or.cond = select i1 %.not, i1 true, i1 %.not2336
  br i1 %or.cond, label %.loopexit, label %.lr.ph

.lr.ph:                                           ; preds = %2
  %8 = getelementptr inbounds nuw i8, ptr %1, i64 20
  %9 = getelementptr inbounds nuw i8, ptr %1, i64 8
  br label %10

10:                                               ; preds = %35, %.lr.ph
  %.01937 = phi ptr [ %6, %.lr.ph ], [ %36, %35 ]
  %11 = call ptr @lpNext(ptr noundef %0, ptr noundef nonnull %.01937) #18
  %.not24 = icmp eq ptr %11, null
  br i1 %.not24, label %12, label %13, !prof !40

12:                                               ; preds = %10
  call void @_serverAssert(ptr noundef nonnull @.str.3, ptr noundef nonnull @.str.1, i32 noundef 941) #18
  call void @abort() #19
  unreachable

13:                                               ; preds = %10
  call void @llvm.lifetime.start.p0(i64 4, ptr nonnull %4) #18
  call void @llvm.lifetime.start.p0(i64 8, ptr nonnull %5) #18
  %14 = call ptr @lpGetValue(ptr noundef nonnull %11, ptr noundef nonnull %4, ptr noundef nonnull %5) #18
  %.not7.i = icmp eq ptr %14, null
  br i1 %.not7.i, label %20, label %15

15:                                               ; preds = %13
  %16 = load i32, ptr %4, align 4, !tbaa !78
  call void @llvm.lifetime.start.p0(i64 128, ptr nonnull %3) #18
  %spec.store.select.i.i = call i32 @llvm.umin.i32(i32 %16, i32 127)
  %17 = zext nneg i32 %spec.store.select.i.i to i64
  call void @llvm.memcpy.p0.p0.i64(ptr nonnull align 16 %3, ptr nonnull readonly align 1 %14, i64 %17, i1 false)
  %18 = getelementptr inbounds nuw [128 x i8], ptr %3, i64 0, i64 %17
  store i8 0, ptr %18, align 1, !tbaa !77
  %19 = call double @fast_float_strtod(ptr noundef nonnull %3, ptr noundef null) #18
  call void @llvm.lifetime.end.p0(i64 128, ptr nonnull %3) #18
  br label %zzlGetScore.exit

20:                                               ; preds = %13
  %21 = load i64, ptr %5, align 8, !tbaa !88
  %22 = sitofp i64 %21 to double
  br label %zzlGetScore.exit

zzlGetScore.exit:                                 ; preds = %15, %20
  %.0.i = phi double [ %19, %15 ], [ %22, %20 ]
  call void @llvm.lifetime.end.p0(i64 8, ptr nonnull %5) #18
  call void @llvm.lifetime.end.p0(i64 4, ptr nonnull %4) #18
  %23 = load i32, ptr %8, align 4, !tbaa !44
  %.not.i29 = icmp eq i32 %23, 0
  %24 = load double, ptr %9, align 8, !tbaa !45
  %25 = fcmp uge double %.0.i, %24
  %26 = fcmp ugt double %.0.i, %24
  %.in.i = select i1 %.not.i29, i1 %26, i1 %25
  br i1 %.in.i, label %33, label %27

27:                                               ; preds = %zzlGetScore.exit
  %28 = getelementptr inbounds nuw i8, ptr %1, i64 16
  %29 = load i32, ptr %28, align 8, !tbaa !41
  %.not.i30 = icmp eq i32 %29, 0
  %30 = load double, ptr %1, align 8, !tbaa !43
  %31 = fcmp ule double %.0.i, %30
  %32 = fcmp ult double %.0.i, %30
  %.in.i31 = select i1 %.not.i30, i1 %32, i1 %31
  %..019 = select i1 %.in.i31, ptr null, ptr %.01937
  br label %.loopexit

33:                                               ; preds = %zzlGetScore.exit
  %34 = call ptr @lpPrev(ptr noundef %0, ptr noundef nonnull %.01937) #18
  %.not26 = icmp eq ptr %34, null
  br i1 %.not26, label %.loopexit, label %35

35:                                               ; preds = %33
  %36 = call ptr @lpPrev(ptr noundef %0, ptr noundef nonnull %34) #18
  %.not27 = icmp eq ptr %36, null
  br i1 %.not27, label %37, label %10, !prof !40, !llvm.loop !91

37:                                               ; preds = %35
  call void @_serverAssert(ptr noundef nonnull @.str.8, ptr noundef nonnull @.str.1, i32 noundef 955) #18
  call void @abort() #19
  unreachable

.loopexit:                                        ; preds = %33, %27, %2
  %.0 = phi ptr [ null, %2 ], [ %..019, %27 ], [ null, %33 ]
  ret ptr %.0
}